target datalayout = "e-m:e-p270:32:32-p271:32:32-p272:64:64-i64:64-i128:128-f80:128-n8:16:32:64-S128"
target triple = "x86_64-pc-linux-gnu"

%struct.RefCountedValue = type { i32, i32 }

; Function Attrs: mustprogress nounwind uwtable
define dso_local void @_Z25TfDelegatedCountDecrementPK15RefCountedValue(ptr noundef %0) #0 {
  %2 = alloca ptr, align 8
  store ptr %0, ptr %2, align 8
  %3 = load ptr, ptr %2, align 8
  %4 = getelementptr inbounds nuw %struct.RefCountedValue, ptr %3, i32 0, i32 1
  %5 = load i32, ptr %4, align 4
  %6 = add nsw i32 %5, -1
  store i32 %6, ptr %4, align 4
  %7 = load ptr, ptr %2, align 8
  %8 = getelementptr inbounds nuw %struct.RefCountedValue, ptr %7, i32 0, i32 1
  %9 = load i32, ptr %8, align 4
  %10 = icmp eq i32 %9, 0
  br i1 %10, label %11, label %16

11:                                               ; preds = %1
  %12 = load ptr, ptr %2, align 8
  %13 = icmp eq ptr %12, null
  br i1 %13, label %15, label %14

14:                                               ; preds = %11
  call void @_ZdlPvm(ptr noundef %12, i64 noundef 8) #9
  br label %15

15:                                               ; preds = %14, %11
  br label %16

16:                                               ; preds = %15, %1
  ret void
}