; Function Attrs: mustprogress nounwind uwtable
define dso_local void @_Z25TfDelegatedCountDecrementPK15RefCountedValue(ptr noundef %0) local_unnamed_addr #1 {
  %2 = getelementptr inbounds nuw i8, ptr %0, i64 4
  %3 = load i32, ptr %2, align 4
  %4 = add nsw i32 %3, -1
  store i32 %4, ptr %2, align 4
  %5 = icmp ne i32 %4, 0
  %6 = icmp eq ptr %0, null
  %or.cond = or i1 %6, %5
  br i1 %or.cond, label %8, label %7

7:                                                ; preds = %1
  tail call void @_ZdlPvm(ptr noundef nonnull %0, i64 noundef 8) #9
  br label %8

8:                                                ; preds = %7, %1
  ret void
}